target datalayout = "e-m:e-p270:32:32-p271:32:32-p272:64:64-i64:64-i128:128-f80:128-n8:16:32:64-S128"
target triple = "x86_64-pc-linux-gnu"

%struct.PS_Table_FuncsRec_ = type { ptr, ptr, ptr, ptr }
%struct.PS_TableRec_ = type { ptr, i64, i64, i64, i32, ptr, ptr, ptr, %struct.PS_Table_FuncsRec_ }

; Function Attrs: nounwind uwtable
define internal void @ps_table_release(ptr noundef %0) #0 {
  %2 = alloca ptr, align 8
  %3 = alloca ptr, align 8
  store ptr %0, ptr %2, align 8
  %4 = load ptr, ptr %2, align 8
  %5 = getelementptr inbounds %struct.PS_TableRec_, ptr %4, i32 0, i32 7
  %6 = load ptr, ptr %5, align 8
  store ptr %6, ptr %3, align 8
  %7 = load ptr, ptr %2, align 8
  %8 = getelementptr inbounds %struct.PS_TableRec_, ptr %7, i32 0, i32 3
  %9 = load i64, ptr %8, align 8
  %10 = icmp eq i64 %9, 3735928559
  br i1 %10, label %11, label %38

11:                                               ; preds = %1
  br label %12

12:                                               ; preds = %11
  %13 = load ptr, ptr %3, align 8
  %14 = load ptr, ptr %2, align 8
  %15 = getelementptr inbounds %struct.PS_TableRec_, ptr %14, i32 0, i32 0
  %16 = load ptr, ptr %15, align 8
  call void @ft_mem_free(ptr noundef %13, ptr noundef %16)
  %17 = load ptr, ptr %2, align 8
  %18 = getelementptr inbounds %struct.PS_TableRec_, ptr %17, i32 0, i32 0
  store ptr null, ptr %18, align 8
  br label %19

19:                                               ; preds = %12
  br label %20

20:                                               ; preds = %19
  %21 = load ptr, ptr %3, align 8
  %22 = load ptr, ptr %2, align 8
  %23 = getelementptr inbounds %struct.PS_TableRec_, ptr %22, i32 0, i32 5
  %24 = load ptr, ptr %23, align 8
  call void @ft_mem_free(ptr noundef %21, ptr noundef %24)
  %25 = load ptr, ptr %2, align 8
  %26 = getelementptr inbounds %struct.PS_TableRec_, ptr %25, i32 0, i32 5
  store ptr null, ptr %26, align 8
  br label %27

27:                                               ; preds = %20
  br label %28

28:                                               ; preds = %27
  %29 = load ptr, ptr %3, align 8
  %30 = load ptr, ptr %2, align 8
  %31 = getelementptr inbounds %struct.PS_TableRec_, ptr %30, i32 0, i32 6
  %32 = load ptr, ptr %31, align 8
  call void @ft_mem_free(ptr noundef %29, ptr noundef %32)
  %33 = load ptr, ptr %2, align 8
  %34 = getelementptr inbounds %struct.PS_TableRec_, ptr %33, i32 0, i32 6
  store ptr null, ptr %34, align 8
  br label %35

35:                                               ; preds = %28
  %36 = load ptr, ptr %2, align 8
  %37 = getelementptr inbounds %struct.PS_TableRec_, ptr %36, i32 0, i32 3
  store i64 0, ptr %37, align 8
  br label %38

38:                                               ; preds = %35, %1
  ret void
}