; Function Attrs: nounwind uwtable
define internal void @ps_table_release(ptr noundef captures(none) %0) #0 {
  %2 = getelementptr inbounds nuw i8, ptr %0, i64 24
  %3 = load i64, ptr %2, align 8
  %4 = icmp eq i64 %3, 3735928559
  br i1 %4, label %5, label %13

5:                                                ; preds = %1
  %6 = getelementptr inbounds nuw i8, ptr %0, i64 56
  %7 = load ptr, ptr %6, align 8
  %8 = load ptr, ptr %0, align 8
  tail call void @ft_mem_free(ptr noundef %7, ptr noundef %8) #20
  store ptr null, ptr %0, align 8
  %9 = getelementptr inbounds nuw i8, ptr %0, i64 40
  %10 = load ptr, ptr %9, align 8
  tail call void @ft_mem_free(ptr noundef %7, ptr noundef %10) #20
  store ptr null, ptr %9, align 8
  %11 = getelementptr inbounds nuw i8, ptr %0, i64 48
  %12 = load ptr, ptr %11, align 8
  tail call void @ft_mem_free(ptr noundef %7, ptr noundef %12) #20
  store ptr null, ptr %11, align 8
  store i64 0, ptr %2, align 8
  br label %13

13:                                               ; preds = %5, %1
  ret void
}